target datalayout = "e-m:e-p270:32:32-p271:32:32-p272:64:64-i64:64-i128:128-f80:128-n8:16:32:64-S128"
target triple = "x86_64-pc-linux-gnu"

%struct.tag_AlsaPcmInfo = type { ptr, ptr, ptr, i32, i32, i32, i64, i16, i16, ptr }

; Function Attrs: nounwind uwtable
define hidden i32 @DAUDIO_GetAvailable(ptr noundef %0, i32 noundef %1) #0 {
  %3 = alloca ptr, align 8
  %4 = alloca i32, align 4
  %5 = alloca ptr, align 8
  %6 = alloca i64, align 8
  %7 = alloca i32, align 4
  %8 = alloca i32, align 4
  store ptr %0, ptr %3, align 8
  store i32 %1, ptr %4, align 4
  %9 = load ptr, ptr %3, align 8
  store ptr %9, ptr %5, align 8
  %10 = load ptr, ptr %5, align 8
  %11 = getelementptr inbounds %struct.tag_AlsaPcmInfo, ptr %10, i32 0, i32 0
  %12 = load ptr, ptr %11, align 8
  %13 = call i32 @snd_pcm_state(ptr noundef %12)
  store i32 %13, ptr %7, align 4
  %14 = load ptr, ptr %5, align 8
  %15 = getelementptr inbounds %struct.tag_AlsaPcmInfo, ptr %14, i32 0, i32 8
  %16 = load i16, ptr %15, align 2
  %17 = sext i16 %16 to i32
  %18 = icmp ne i32 %17, 0
  br i1 %18, label %22, label %19

19:                                               ; preds = %2
  %20 = load i32, ptr %7, align 4
  %21 = icmp eq i32 %20, 4
  br i1 %21, label %22, label %26

22:                                               ; preds = %19, %2
  %23 = load ptr, ptr %5, align 8
  %24 = getelementptr inbounds %struct.tag_AlsaPcmInfo, ptr %23, i32 0, i32 3
  %25 = load i32, ptr %24, align 8
  store i32 %25, ptr %8, align 4
  br label %43

26:                                               ; preds = %19
  %27 = load ptr, ptr %5, align 8
  %28 = getelementptr inbounds %struct.tag_AlsaPcmInfo, ptr %27, i32 0, i32 0
  %29 = load ptr, ptr %28, align 8
  %30 = call i64 @snd_pcm_avail_update(ptr noundef %29)
  store i64 %30, ptr %6, align 8
  %31 = load i64, ptr %6, align 8
  %32 = icmp slt i64 %31, 0
  br i1 %32, label %33, label %34

33:                                               ; preds = %26
  store i32 0, ptr %8, align 4
  br label %42

34:                                               ; preds = %26
  %35 = load i64, ptr %6, align 8
  %36 = load ptr, ptr %5, align 8
  %37 = getelementptr inbounds %struct.tag_AlsaPcmInfo, ptr %36, i32 0, i32 4
  %38 = load i32, ptr %37, align 4
  %39 = sext i32 %38 to i64
  %40 = mul nsw i64 %35, %39
  %41 = trunc i64 %40 to i32
  store i32 %41, ptr %8, align 4
  br label %42

42:                                               ; preds = %34, %33
  br label %43

43:                                               ; preds = %42, %22
  %44 = load i32, ptr %8, align 4
  ret i32 %44
}