; Function Attrs: nounwind uwtable
define hidden i32 @DAUDIO_GetAvailable(ptr nocapture noundef readonly %0, i32 noundef %1) local_unnamed_addr #0 {
  %3 = load ptr, ptr %0, align 8
  %4 = tail call i32 @snd_pcm_state(ptr noundef %3) #8
  %5 = getelementptr inbounds i8, ptr %0, i64 50
  %6 = load i16, ptr %5, align 2
  %7 = icmp ne i16 %6, 0
  %8 = icmp eq i32 %4, 4
  %or.cond = select i1 %7, i1 true, i1 %8
  br i1 %or.cond, label %9, label %12

9:                                                ; preds = %2
  %10 = getelementptr inbounds i8, ptr %0, i64 24
  %11 = load i32, ptr %10, align 8
  br label %21

12:                                               ; preds = %2
  %13 = load ptr, ptr %0, align 8
  %14 = tail call i64 @snd_pcm_avail_update(ptr noundef %13) #8
  %15 = icmp slt i64 %14, 0
  br i1 %15, label %21, label %16

16:                                               ; preds = %12
  %17 = getelementptr inbounds i8, ptr %0, i64 28
  %18 = load i32, ptr %17, align 4
  %19 = trunc i64 %14 to i32
  %20 = mul i32 %18, %19
  br label %21

21:                                               ; preds = %12, %16, %9
  %.0 = phi i32 [ %11, %9 ], [ %20, %16 ], [ 0, %12 ]
  ret i32 %.0
}